target datalayout = "e-m:e-p270:32:32-p271:32:32-p272:64:64-i64:64-i128:128-f80:128-n8:16:32:64-S128"
target triple = "x86_64-pc-linux-gnu"

%struct.H5HF_t = type { ptr, ptr }
%struct.H5HF_hdr_t = type { %struct.H5C_cache_entry_t, i32, i32, i8, i8, i8, i8, %struct.H5HF_dtable_t, i64, i64, i32, i64, i64, %struct.H5O_pline_t, i64, i32, i64, i64, i64, i64, i64, i64, i64, i64, i64, i64, i64, i32, ptr, i64, i8, i8, i8, ptr, i32, ptr, %struct.H5HF_block_iter_t, ptr, i64, i8, i8, i64, i8, i8, i8, i8 }
%struct.H5C_cache_entry_t = type { ptr, i64, i64, ptr, i8, ptr, i8, i8, i8, i8, i32, i8, i8, i8, i8, i8, i32, ptr, i32, i32, i32, i32, i32, i8, i8, ptr, ptr, ptr, ptr, ptr, ptr, i8, i32, i8, i64, ptr, i64, i64, i32, i8, i32, i32, i8, ptr, ptr, ptr }
%struct.H5HF_dtable_t = type { %struct.H5HF_dtable_cparam_t, i64, i32, i32, i32, i32, i32, i32, i32, i64, ptr, ptr, ptr, ptr }
%struct.H5HF_dtable_cparam_t = type { i32, i64, i64, i32, i32 }
%struct.H5O_pline_t = type { %struct.H5O_shared_t, i32, i64, i64, ptr }
%struct.H5O_shared_t = type { i32, ptr, i32, %union.anon }
%union.anon = type { %struct.H5O_mesg_loc_t }
%struct.H5O_mesg_loc_t = type { i32, i64 }
%struct.H5HF_block_iter_t = type { i8, ptr }

@H5HF_init_g = external global i8, align 1
@H5_libterm_g = external global i8, align 1

; Function Attrs: nounwind uwtable
define i32 @H5HF_get_id_off_test(ptr noundef %0, ptr noundef %1, ptr noundef %2) #0 {
  %4 = alloca ptr, align 8
  %5 = alloca ptr, align 8
  %6 = alloca ptr, align 8
  %7 = alloca ptr, align 8
  %8 = alloca i64, align 8
  store ptr %0, ptr %4, align 8, !tbaa !3
  store ptr %1, ptr %5, align 8, !tbaa !74
  store ptr %2, ptr %6, align 8, !tbaa !75
  call void @llvm.lifetime.start.p0(i64 8, ptr %7) #5
  %9 = load ptr, ptr %5, align 8, !tbaa !74
  store ptr %9, ptr %7, align 8, !tbaa !76
  %10 = load i8, ptr @H5HF_init_g, align 1, !tbaa !10, !range !12, !noundef !13
  %11 = trunc i8 %10 to i1
  br i1 %11, label %16, label %12

12:                                               ; preds = %3
  %13 = load i8, ptr @H5_libterm_g, align 1, !tbaa !10, !range !12, !noundef !13
  %14 = trunc i8 %13 to i1
  %15 = xor i1 %14, true
  br label %16

16:                                               ; preds = %12, %3
  %17 = phi i1 [ true, %3 ], [ %15, %12 ]
  %18 = xor i1 %17, true
  %19 = xor i1 %18, true
  %20 = zext i1 %19 to i32
  %21 = sext i32 %20 to i64
  %22 = call i64 @llvm.expect.i64(i64 %21, i64 1)
  %23 = icmp ne i64 %22, 0
  br i1 %23, label %24, label %72

24:                                               ; preds = %16
  %25 = load ptr, ptr %7, align 8, !tbaa !76
  %26 = getelementptr inbounds nuw i8, ptr %25, i32 1
  store ptr %26, ptr %7, align 8, !tbaa !76
  br label %27

27:                                               ; preds = %24
  call void @llvm.lifetime.start.p0(i64 8, ptr %8) #5
  %28 = load ptr, ptr %6, align 8, !tbaa !75
  store i64 0, ptr %28, align 8, !tbaa !55
  %29 = load ptr, ptr %4, align 8, !tbaa !3
  %30 = getelementptr inbounds nuw %struct.H5HF_t, ptr %29, i32 0, i32 0
  %31 = load ptr, ptr %30, align 8, !tbaa !14
  %32 = getelementptr inbounds nuw %struct.H5HF_hdr_t, ptr %31, i32 0, i32 43
  %33 = load i8, ptr %32, align 1, !tbaa !39
  %34 = zext i8 %33 to i32
  %35 = load ptr, ptr %7, align 8, !tbaa !76
  %36 = sext i32 %34 to i64
  %37 = getelementptr inbounds i8, ptr %35, i64 %36
  store ptr %37, ptr %7, align 8, !tbaa !76
  store i64 0, ptr %8, align 8, !tbaa !55
  br label %38

38:                                               ; preds = %57, %27
  %39 = load i64, ptr %8, align 8, !tbaa !55
  %40 = load ptr, ptr %4, align 8, !tbaa !3
  %41 = getelementptr inbounds nuw %struct.H5HF_t, ptr %40, i32 0, i32 0
  %42 = load ptr, ptr %41, align 8, !tbaa !14
  %43 = getelementptr inbounds nuw %struct.H5HF_hdr_t, ptr %42, i32 0, i32 43
  %44 = load i8, ptr %43, align 1, !tbaa !39
  %45 = zext i8 %44 to i64
  %46 = icmp ult i64 %39, %45
  br i1 %46, label %47, label %60

47:                                               ; preds = %38
  %48 = load ptr, ptr %6, align 8, !tbaa !75
  %49 = load i64, ptr %48, align 8, !tbaa !55
  %50 = shl i64 %49, 8
  %51 = load ptr, ptr %7, align 8, !tbaa !76
  %52 = getelementptr inbounds i8, ptr %51, i32 -1
  store ptr %52, ptr %7, align 8, !tbaa !76
  %53 = load i8, ptr %52, align 1, !tbaa !77
  %54 = zext i8 %53 to i64
  %55 = or i64 %50, %54
  %56 = load ptr, ptr %6, align 8, !tbaa !75
  store i64 %55, ptr %56, align 8, !tbaa !55
  br label %57

57:                                               ; preds = %47
  %58 = load i64, ptr %8, align 8, !tbaa !55
  %59 = add i64 %58, 1
  store i64 %59, ptr %8, align 8, !tbaa !55
  br label %38, !llvm.loop !78

60:                                               ; preds = %38
  %61 = load ptr, ptr %4, align 8, !tbaa !3
  %62 = getelementptr inbounds nuw %struct.H5HF_t, ptr %61, i32 0, i32 0
  %63 = load ptr, ptr %62, align 8, !tbaa !14
  %64 = getelementptr inbounds nuw %struct.H5HF_hdr_t, ptr %63, i32 0, i32 43
  %65 = load i8, ptr %64, align 1, !tbaa !39
  %66 = zext i8 %65 to i32
  %67 = load ptr, ptr %7, align 8, !tbaa !76
  %68 = sext i32 %66 to i64
  %69 = getelementptr inbounds i8, ptr %67, i64 %68
  store ptr %69, ptr %7, align 8, !tbaa !76
  call void @llvm.lifetime.end.p0(i64 8, ptr %8) #5
  br label %70

70:                                               ; preds = %60
  br label %71

71:                                               ; preds = %70
  br label %72

72:                                               ; preds = %71, %16
  call void @llvm.lifetime.end.p0(i64 8, ptr %7) #5
  ret i32 0
}