; Function Attrs: nofree norecurse nosync nounwind memory(read, argmem: readwrite, inaccessiblemem: none) uwtable
define noundef i32 @H5HF_get_id_off_test(ptr noundef readonly captures(none) %0, ptr noundef readonly captures(none) %1, ptr noundef writeonly captures(none) %2) local_unnamed_addr #5 {
  %4 = load i8, ptr @H5HF_init_g, align 1, !tbaa !3, !range !7, !noundef !8
  %5 = trunc nuw i8 %4 to i1
  %6 = load i8, ptr @H5_libterm_g, align 1, !range !7
  %7 = trunc nuw i8 %6 to i1
  %8 = xor i1 %7, true
  %9 = select i1 %5, i1 true, i1 %8
  br i1 %9, label %10, label %.loopexit, !prof !9

10:                                               ; preds = %3
  store i64 0, ptr %2, align 8, !tbaa !69
  %11 = load ptr, ptr %0, align 8, !tbaa !10
  %12 = getelementptr inbounds nuw i8, ptr %11, i64 697
  %13 = load i8, ptr %12, align 1, !tbaa !36
  %14 = zext i8 %13 to i64
  %.not = icmp eq i8 %13, 0
  br i1 %.not, label %.loopexit, label %.lr.ph

.lr.ph:                                           ; preds = %10
  %15 = getelementptr inbounds nuw i8, ptr %1, i64 1
  %16 = getelementptr inbounds nuw i8, ptr %15, i64 %14
  br label %17

17:                                               ; preds = %.lr.ph, %17
  %18 = phi i64 [ 0, %.lr.ph ], [ %23, %17 ]
  %.014 = phi i64 [ 0, %.lr.ph ], [ %24, %17 ]
  %.01213 = phi ptr [ %16, %.lr.ph ], [ %20, %17 ]
  %19 = shl i64 %18, 8
  %20 = getelementptr inbounds i8, ptr %.01213, i64 -1
  %21 = load i8, ptr %20, align 1, !tbaa !71
  %22 = zext i8 %21 to i64
  %23 = or disjoint i64 %19, %22
  store i64 %23, ptr %2, align 8, !tbaa !69
  %24 = add nuw nsw i64 %.014, 1
  %exitcond.not = icmp eq i64 %24, %14
  br i1 %exitcond.not, label %.loopexit, label %17, !llvm.loop !72

.loopexit:                                        ; preds = %17, %10, %3
  ret i32 0
}